(lp0
S'poi'
p1
aS'salary'
p2
aS'total_payments'
p3
aS'exercised_stock_options'
p4
aS'to_ratio'
p5
aS'bonus'
p6
aS'total_stock_value'
p7
aS'expenses'
p8
aS'loan_advances'
p9
aS'deferred_income'
p10
aS'long_term_incentive'
p11
a.